target datalayout = "e-m:e-p270:32:32-p271:32:32-p272:64:64-i64:64-i128:128-f80:128-n8:16:32:64-S128"
target triple = "x86_64-pc-linux-gnu"

%"class.clang::Expr::Classification" = type { i16, i16 }
%"class.clang::SourceLocation" = type { i32 }

; Function Attrs: mustprogress nounwind uwtable
define linkonce_odr hidden noundef i32 @_ZNK5clang4Expr14Classification13getModifiableEv(ptr noundef nonnull align 2 dereferenceable(4) %0) #0 comdat align 2 {
  %2 = alloca ptr, align 8
  store ptr %0, ptr %2, align 8
  %3 = load ptr, ptr %2, align 8
  %4 = getelementptr inbounds nuw %"class.clang::Expr::Classification", ptr %3, i32 0, i32 1
  %5 = load i16, ptr %4, align 2
  %6 = zext i16 %5 to i32
  ret i32 %6
}

; Function Attrs: mustprogress nounwind uwtable
define linkonce_odr hidden noundef i32 @_ZNK5clang4Expr14Classification7getKindEv(ptr noundef nonnull align 2 dereferenceable(4) %0) #0 comdat align 2 {
  %2 = alloca ptr, align 8
  store ptr %0, ptr %2, align 8
  %3 = load ptr, ptr %2, align 8
  %4 = getelementptr inbounds nuw %"class.clang::Expr::Classification", ptr %3, i32 0, i32 0
  %5 = load i16, ptr %4, align 2
  %6 = zext i16 %5 to i32
  ret i32 %6
}

; Function Attrs: mustprogress nounwind uwtable
define linkonce_odr hidden i32 @_ZNK5clang4Expr18ClassifyModifiableERNS_10ASTContextERNS_14SourceLocationE(ptr noundef nonnull align 8 dereferenceable(16) %0, ptr noundef nonnull align 8 dereferenceable(23096) %1, ptr noundef nonnull align 4 dereferenceable(4) %2) #0 comdat align 2 {
  %4 = alloca %"class.clang::Expr::Classification", align 2
  %5 = alloca ptr, align 8
  %6 = alloca ptr, align 8
  %7 = alloca ptr, align 8
  store ptr %0, ptr %5, align 8
  store ptr %1, ptr %6, align 8
  store ptr %2, ptr %7, align 8
  %8 = load ptr, ptr %5, align 8
  %9 = load ptr, ptr %6, align 8
  %10 = load ptr, ptr %7, align 8
  %11 = call i32 @_ZNK5clang4Expr12ClassifyImplERNS_10ASTContextEPNS_14SourceLocationE(ptr noundef nonnull align 8 dereferenceable(16) %8, ptr noundef nonnull align 8 dereferenceable(23096) %9, ptr noundef %10)
  store i32 %11, ptr %4, align 2
  %12 = load i32, ptr %4, align 2
  ret i32 %12
}

; Function Attrs: mustprogress nounwind uwtable
define linkonce_odr hidden void @_ZN5clang14SourceLocationC2Ev(ptr noundef nonnull align 4 dereferenceable(4) %0) unnamed_addr #0 comdat align 2 {
  %2 = alloca ptr, align 8
  store ptr %0, ptr %2, align 8
  %3 = load ptr, ptr %2, align 8
  %4 = getelementptr inbounds nuw %"class.clang::SourceLocation", ptr %3, i32 0, i32 0
  store i32 0, ptr %4, align 4
  ret void
}

; Function Attrs: mustprogress nounwind uwtable
define dso_local noundef i32 @_ZNK5clang4Expr18isModifiableLvalueERNS_10ASTContextEPNS_14SourceLocationE(ptr noundef nonnull align 8 dereferenceable(16) %0, ptr noundef nonnull align 8 dereferenceable(23096) %1, ptr noundef %2) #0 align 2 {
  %4 = alloca i32, align 4
  %5 = alloca ptr, align 8
  %6 = alloca ptr, align 8
  %7 = alloca ptr, align 8
  %8 = alloca %"class.clang::SourceLocation", align 4
  %9 = alloca %"class.clang::Expr::Classification", align 2
  store ptr %0, ptr %5, align 8
  store ptr %1, ptr %6, align 8
  store ptr %2, ptr %7, align 8
  %10 = load ptr, ptr %5, align 8
  call void @_ZN5clang14SourceLocationC2Ev(ptr noundef nonnull align 4 dereferenceable(4) %8) #7
  %11 = load ptr, ptr %6, align 8
  %12 = load ptr, ptr %7, align 8
  %13 = icmp ne ptr %12, null
  br i1 %13, label %14, label %16

14:                                               ; preds = %3
  %15 = load ptr, ptr %7, align 8
  br label %17

16:                                               ; preds = %3
  br label %17

17:                                               ; preds = %16, %14
  %18 = phi ptr [ %15, %14 ], [ %8, %16 ]
  %19 = call i32 @_ZNK5clang4Expr18ClassifyModifiableERNS_10ASTContextERNS_14SourceLocationE(ptr noundef nonnull align 8 dereferenceable(16) %10, ptr noundef nonnull align 8 dereferenceable(23096) %11, ptr noundef nonnull align 4 dereferenceable(4) %18)
  store i32 %19, ptr %9, align 2
  %20 = call noundef i32 @_ZNK5clang4Expr14Classification7getKindEv(ptr noundef nonnull align 2 dereferenceable(4) %9)
  switch i32 %20, label %36 [
    i32 0, label %21
    i32 1, label %22
    i32 2, label %23
    i32 3, label %24
    i32 4, label %25
    i32 5, label %26
    i32 6, label %27
    i32 7, label %28
    i32 8, label %29
    i32 9, label %30
    i32 10, label %31
    i32 11, label %32
  ]

21:                                               ; preds = %17
  br label %36

22:                                               ; preds = %17
  store i32 4, ptr %4, align 4
  br label %50

23:                                               ; preds = %17
  store i32 1, ptr %4, align 4
  br label %50

24:                                               ; preds = %17
  store i32 4, ptr %4, align 4
  br label %50

25:                                               ; preds = %17
  store i32 2, ptr %4, align 4
  br label %50

26:                                               ; preds = %17
  store i32 3, ptr %4, align 4
  br label %50

27:                                               ; preds = %17
  store i32 12, ptr %4, align 4
  br label %50

28:                                               ; preds = %17
  store i32 13, ptr %4, align 4
  br label %50

29:                                               ; preds = %17
  store i32 15, ptr %4, align 4
  br label %50

30:                                               ; preds = %17
  store i32 16, ptr %4, align 4
  br label %50

31:                                               ; preds = %17
  store i32 14, ptr %4, align 4
  br label %50

32:                                               ; preds = %17
  %33 = call noundef i32 @_ZNK5clang4Expr14Classification13getModifiableEv(ptr noundef nonnull align 2 dereferenceable(4) %9)
  %34 = icmp eq i32 %33, 4
  %35 = select i1 %34, i32 5, i32 4
  store i32 %35, ptr %4, align 4
  br label %50

36:                                               ; preds = %21, %17
  %37 = call noundef i32 @_ZNK5clang4Expr14Classification13getModifiableEv(ptr noundef nonnull align 2 dereferenceable(4) %9)
  switch i32 %37, label %49 [
    i32 0, label %38
    i32 1, label %39
    i32 2, label %40
    i32 3, label %41
    i32 4, label %42
    i32 5, label %43
    i32 6, label %44
    i32 7, label %45
    i32 8, label %46
    i32 9, label %47
    i32 10, label %48
  ]

38:                                               ; preds = %36
  unreachable

39:                                               ; preds = %36
  store i32 0, ptr %4, align 4
  br label %50

40:                                               ; preds = %36
  unreachable

41:                                               ; preds = %36
  store i32 1, ptr %4, align 4
  br label %50

42:                                               ; preds = %36
  unreachable

43:                                               ; preds = %36
  store i32 11, ptr %4, align 4
  br label %50

44:                                               ; preds = %36
  store i32 7, ptr %4, align 4
  br label %50

45:                                               ; preds = %36
  store i32 8, ptr %4, align 4
  br label %50

46:                                               ; preds = %36
  store i32 9, ptr %4, align 4
  br label %50

47:                                               ; preds = %36
  store i32 10, ptr %4, align 4
  br label %50

48:                                               ; preds = %36
  store i32 6, ptr %4, align 4
  br label %50

49:                                               ; preds = %36
  unreachable

50:                                               ; preds = %48, %47, %46, %45, %44, %43, %41, %39, %32, %31, %30, %29, %28, %27, %26, %25, %24, %23, %22
  %51 = load i32, ptr %4, align 4
  ret i32 %51
}