; Function Attrs: mustprogress nounwind uwtable
define dso_local noundef range(i32 0, 17) i32 @_ZNK5clang4Expr18isModifiableLvalueERNS_10ASTContextEPNS_14SourceLocationE(ptr noundef nonnull align 8 dereferenceable(16) %0, ptr noundef nonnull align 8 dereferenceable(23096) %1, ptr noundef %2) local_unnamed_addr #0 align 2 {
  %4 = alloca %"class.clang::SourceLocation", align 4
  %.not = icmp eq ptr %2, null
  %5 = select i1 %.not, ptr %4, ptr %2
  %6 = call i32 @_ZNK5clang4Expr12ClassifyImplERNS_10ASTContextEPNS_14SourceLocationE(ptr noundef nonnull align 8 dereferenceable(16) %0, ptr noundef nonnull align 8 dereferenceable(23096) %1, ptr noundef nonnull align 4 dereferenceable(4) %5)
  %.sroa.2.0.extract.shift = lshr i32 %6, 16
  %trunc = trunc i32 %6 to i16
  switch i16 %trunc, label %switch.lookup [
    i16 11, label %15
    i16 1, label %19
    i16 2, label %7
    i16 3, label %19
    i16 4, label %8
    i16 5, label %9
    i16 6, label %10
    i16 7, label %11
    i16 8, label %12
    i16 9, label %13
    i16 10, label %14
  ]

7:                                                ; preds = %3
  br label %19

8:                                                ; preds = %3
  br label %19

9:                                                ; preds = %3
  br label %19

10:                                               ; preds = %3
  br label %19

11:                                               ; preds = %3
  br label %19

12:                                               ; preds = %3
  br label %19

13:                                               ; preds = %3
  br label %19

14:                                               ; preds = %3
  br label %19

15:                                               ; preds = %3
  %16 = icmp eq i32 %.sroa.2.0.extract.shift, 4
  %17 = select i1 %16, i32 5, i32 4
  br label %19

switch.lookup:                                    ; preds = %3
  %switch.tableidx = add nsw i32 %.sroa.2.0.extract.shift, -1
  %18 = sext i32 %switch.tableidx to i64
  %switch.gep = getelementptr inbounds [10 x i32], ptr @switch.table._ZNK5clang4Expr18isModifiableLvalueERNS_10ASTContextEPNS_14SourceLocationE, i64 0, i64 %18
  %switch.load = load i32, ptr %switch.gep, align 4
  br label %19

19:                                               ; preds = %switch.lookup, %3, %3, %15, %14, %13, %12, %11, %10, %9, %8, %7
  %.0 = phi i32 [ 14, %14 ], [ 16, %13 ], [ 15, %12 ], [ 13, %11 ], [ 12, %10 ], [ 3, %9 ], [ 2, %8 ], [ 1, %7 ], [ %17, %15 ], [ 4, %3 ], [ 4, %3 ], [ %switch.load, %switch.lookup ]
  ret i32 %.0
}